target datalayout = "e-m:e-p270:32:32-p271:32:32-p272:64:64-i64:64-i128:128-f80:128-n8:16:32:64-S128"
target triple = "x86_64-unknown-linux-gnu"

%class.btBvhTriangleMeshShape = type <{ %class.btTriangleMeshShape, ptr, ptr, i8, i8, [11 x i8], [3 x i8] }>
%class.btTriangleMeshShape = type { %class.btConcaveShape.base, %class.btVector3, %class.btVector3, ptr }
%class.btConcaveShape.base = type <{ %class.btCollisionShape, float }>
%class.btCollisionShape = type { ptr, i32, ptr, i32, i32 }
%class.btVector3 = type { [4 x float] }
%class.btChunk = type { i32, i32, ptr, i32, i32 }

; Function Attrs: mustprogress uwtable
define dso_local void @_ZNK22btBvhTriangleMeshShape18serializeSingleBvhEP12btSerializer(ptr noundef nonnull align 8 dereferenceable(109) %this, ptr noundef %serializer) unnamed_addr #2 align 2 {
entry:
  %this.addr = alloca ptr, align 8
  %serializer.addr = alloca ptr, align 8
  %len = alloca i32, align 4
  %chunk = alloca ptr, align 8
  %structType = alloca ptr, align 8
  store ptr %this, ptr %this.addr, align 8
  store ptr %serializer, ptr %serializer.addr, align 8
  %this1 = load ptr, ptr %this.addr, align 8
  %m_bvh = getelementptr inbounds %class.btBvhTriangleMeshShape, ptr %this1, i32 0, i32 1
  %0 = load ptr, ptr %m_bvh, align 8
  %tobool = icmp ne ptr %0, null
  br i1 %tobool, label %if.then, label %if.end

if.then:                                          ; preds = %entry
  %m_bvh2 = getelementptr inbounds %class.btBvhTriangleMeshShape, ptr %this1, i32 0, i32 1
  %1 = load ptr, ptr %m_bvh2, align 8
  %vtable = load ptr, ptr %1, align 8
  %vfn = getelementptr inbounds ptr, ptr %vtable, i64 3
  %2 = load ptr, ptr %vfn, align 8
  %call = call noundef i32 %2(ptr noundef nonnull align 8 dereferenceable(244) %1)
  store i32 %call, ptr %len, align 4
  %3 = load ptr, ptr %serializer.addr, align 8
  %4 = load i32, ptr %len, align 4
  %conv = sext i32 %4 to i64
  %vtable3 = load ptr, ptr %3, align 8
  %vfn4 = getelementptr inbounds ptr, ptr %vtable3, i64 4
  %5 = load ptr, ptr %vfn4, align 8
  %call5 = call noundef ptr %5(ptr noundef nonnull align 8 dereferenceable(8) %3, i64 noundef %conv, i32 noundef 1)
  store ptr %call5, ptr %chunk, align 8
  %m_bvh6 = getelementptr inbounds %class.btBvhTriangleMeshShape, ptr %this1, i32 0, i32 1
  %6 = load ptr, ptr %m_bvh6, align 8
  %7 = load ptr, ptr %chunk, align 8
  %m_oldPtr = getelementptr inbounds %class.btChunk, ptr %7, i32 0, i32 2
  %8 = load ptr, ptr %m_oldPtr, align 8
  %9 = load ptr, ptr %serializer.addr, align 8
  %vtable7 = load ptr, ptr %6, align 8
  %vfn8 = getelementptr inbounds ptr, ptr %vtable7, i64 4
  %10 = load ptr, ptr %vfn8, align 8
  %call9 = call noundef ptr %10(ptr noundef nonnull align 8 dereferenceable(244) %6, ptr noundef %8, ptr noundef %9)
  store ptr %call9, ptr %structType, align 8
  %11 = load ptr, ptr %serializer.addr, align 8
  %12 = load ptr, ptr %chunk, align 8
  %13 = load ptr, ptr %structType, align 8
  %m_bvh10 = getelementptr inbounds %class.btBvhTriangleMeshShape, ptr %this1, i32 0, i32 1
  %14 = load ptr, ptr %m_bvh10, align 8
  %vtable11 = load ptr, ptr %11, align 8
  %vfn12 = getelementptr inbounds ptr, ptr %vtable11, i64 5
  %15 = load ptr, ptr %vfn12, align 8
  call void %15(ptr noundef nonnull align 8 dereferenceable(8) %11, ptr noundef %12, ptr noundef %13, i32 noundef 1213612625, ptr noundef %14)
  br label %if.end

if.end:                                           ; preds = %if.then, %entry
  ret void
}